; Function Attrs: nounwind uwtable
define nonnull ptr @l_Lean_PersistentArray_anyMAux___at_Lean_Meta_getFVarSetToGeneralize___spec__27___boxed(ptr noundef %0, ptr noundef %1, ptr noundef %2) local_unnamed_addr #0 {
  %4 = tail call zeroext i8 @l_Lean_PersistentArray_anyMAux___at_Lean_Meta_getFVarSetToGeneralize___spec__27(ptr noundef %0, ptr noundef %1, ptr noundef %2)
  %5 = ptrtoint ptr %2 to i64
  %6 = and i64 %5, 1
  %.not = icmp eq i64 %6, 0
  br i1 %.not, label %7, label %lean_dec.exit

7:                                                ; preds = %3
  %8 = load i32, ptr %2, align 4, !tbaa !8
  %9 = icmp sgt i32 %8, 1
  br i1 %9, label %10, label %12, !prof !11

10:                                               ; preds = %7
  %11 = add nsw i32 %8, -1
  store i32 %11, ptr %2, align 4, !tbaa !8
  br label %lean_dec.exit

12:                                               ; preds = %7
  %.not.i = icmp eq i32 %8, 0
  br i1 %.not.i, label %lean_dec.exit, label %13

13:                                               ; preds = %12
  tail call void @lean_dec_ref_cold(ptr noundef nonnull %2) #4
  br label %lean_dec.exit

lean_dec.exit:                                    ; preds = %13, %12, %10, %3
  %14 = zext i8 %4 to i64
  %15 = shl nuw nsw i64 %14, 1
  %16 = or disjoint i64 %15, 1
  %17 = inttoptr i64 %16 to ptr
  ret ptr %17
}